target datalayout = "e-m:e-p270:32:32-p271:32:32-p272:64:64-i64:64-i128:128-f80:128-n8:16:32:64-S128"
target triple = "x86_64-pc-linux-gnu"

%struct.AVFilterContext = type { ptr, ptr, ptr, ptr, ptr, i32, ptr, ptr, i32, ptr, ptr, i32, i32, ptr, ptr, ptr, ptr, i32, ptr, i32, i32 }
%struct.XFadeContext = type { ptr, i32, i64, i64, ptr, i32, i32, i32, i64, i64, i64, i64, i32, [2 x i32], [2 x ptr], i32, [4 x i16], [4 x i16], ptr, ptr }
%struct.AVRational = type { i32, i32 }
%struct.AVFrame = type { [8 x ptr], [8 x i32], ptr, i32, i32, i32, i32, i32, %struct.AVRational, i64, i64, %struct.AVRational, i32, ptr, i32, i32, [8 x ptr], ptr, i32, ptr, i32, i32, i32, i32, i32, i32, i32, i64, ptr, i32, ptr, ptr, i64, i64, i64, i64, ptr, %struct.AVChannelLayout, i64 }
%struct.AVChannelLayout = type { i32, i32, %union.anon.1, ptr }
%union.anon.1 = type { i64 }

; Function Attrs: alwaysinline nounwind willreturn memory(none) uwtable
define internal float @av_clipf_c(float noundef %0, float noundef %1, float noundef %2) #8 {
  %4 = alloca float, align 4
  %5 = alloca float, align 4
  %6 = alloca float, align 4
  store float %0, ptr %4, align 4, !tbaa !90
  store float %1, ptr %5, align 4, !tbaa !90
  store float %2, ptr %6, align 4, !tbaa !90
  %7 = load float, ptr %4, align 4, !tbaa !90
  %8 = load float, ptr %5, align 4, !tbaa !90
  %9 = fcmp nsz ogt float %7, %8
  br i1 %9, label %10, label %12

10:                                               ; preds = %3
  %11 = load float, ptr %4, align 4, !tbaa !90
  br label %14

12:                                               ; preds = %3
  %13 = load float, ptr %5, align 4, !tbaa !90
  br label %14

14:                                               ; preds = %12, %10
  %15 = phi nsz float [ %11, %10 ], [ %13, %12 ]
  %16 = load float, ptr %6, align 4, !tbaa !90
  %17 = fcmp nsz ogt float %15, %16
  br i1 %17, label %18, label %20

18:                                               ; preds = %14
  %19 = load float, ptr %6, align 4, !tbaa !90
  br label %30

20:                                               ; preds = %14
  %21 = load float, ptr %4, align 4, !tbaa !90
  %22 = load float, ptr %5, align 4, !tbaa !90
  %23 = fcmp nsz ogt float %21, %22
  br i1 %23, label %24, label %26

24:                                               ; preds = %20
  %25 = load float, ptr %4, align 4, !tbaa !90
  br label %28

26:                                               ; preds = %20
  %27 = load float, ptr %5, align 4, !tbaa !90
  br label %28

28:                                               ; preds = %26, %24
  %29 = phi nsz float [ %25, %24 ], [ %27, %26 ]
  br label %30

30:                                               ; preds = %28, %18
  %31 = phi nsz float [ %19, %18 ], [ %29, %28 ]
  ret float %31
}

; Function Attrs: inlinehint nounwind uwtable
define internal float @mix(float noundef %0, float noundef %1, float noundef %2) #4 {
  %4 = alloca float, align 4
  %5 = alloca float, align 4
  %6 = alloca float, align 4
  store float %0, ptr %4, align 4, !tbaa !90
  store float %1, ptr %5, align 4, !tbaa !90
  store float %2, ptr %6, align 4, !tbaa !90
  %7 = load float, ptr %4, align 4, !tbaa !90
  %8 = load float, ptr %6, align 4, !tbaa !90
  %9 = load float, ptr %5, align 4, !tbaa !90
  %10 = load float, ptr %6, align 4, !tbaa !90
  %11 = fsub nsz float 1.000000e+00, %10
  %12 = fmul nsz float %9, %11
  %13 = call nsz float @llvm.fmuladd.f32(float %7, float %8, float %12)
  ret float %13
}

; Function Attrs: inlinehint nounwind uwtable
define internal float @fract(float noundef %0) #4 {
  %2 = alloca float, align 4
  store float %0, ptr %2, align 4, !tbaa !90
  %3 = load float, ptr %2, align 4, !tbaa !90
  %4 = load float, ptr %2, align 4, !tbaa !90
  %5 = call nsz float @llvm.floor.f32(float %4)
  %6 = fsub nsz float %3, %5
  ret float %6
}

; Function Attrs: inlinehint nounwind uwtable
define internal float @smoothstep(float noundef %0, float noundef %1, float noundef %2) #4 {
  %4 = alloca float, align 4
  %5 = alloca float, align 4
  %6 = alloca float, align 4
  %7 = alloca float, align 4
  store float %0, ptr %4, align 4, !tbaa !90
  store float %1, ptr %5, align 4, !tbaa !90
  store float %2, ptr %6, align 4, !tbaa !90
  call void @llvm.lifetime.start.p0(i64 4, ptr %7) #10
  %8 = load float, ptr %6, align 4, !tbaa !90
  %9 = load float, ptr %4, align 4, !tbaa !90
  %10 = fsub nsz float %8, %9
  %11 = load float, ptr %5, align 4, !tbaa !90
  %12 = load float, ptr %4, align 4, !tbaa !90
  %13 = fsub nsz float %11, %12
  %14 = fdiv nsz float %10, %13
  %15 = call nsz float @av_clipf_c(float noundef %14, float noundef 0.000000e+00, float noundef 1.000000e+00) #11
  store float %15, ptr %7, align 4, !tbaa !90
  %16 = load float, ptr %7, align 4, !tbaa !90
  %17 = load float, ptr %7, align 4, !tbaa !90
  %18 = fmul nsz float %16, %17
  %19 = load float, ptr %7, align 4, !tbaa !90
  %20 = call nsz float @llvm.fmuladd.f32(float -2.000000e+00, float %19, float 3.000000e+00)
  %21 = fmul nsz float %18, %20
  call void @llvm.lifetime.end.p0(i64 4, ptr %7) #10
  ret float %21
}

; Function Attrs: nounwind uwtable
define internal void @vuslice8_transition(ptr noundef %0, ptr noundef %1, ptr noundef %2, ptr noundef %3, float noundef %4, i32 noundef %5, i32 noundef %6, i32 noundef %7) #1 {
  %9 = alloca ptr, align 8
  %10 = alloca ptr, align 8
  %11 = alloca ptr, align 8
  %12 = alloca ptr, align 8
  %13 = alloca float, align 4
  %14 = alloca i32, align 4
  %15 = alloca i32, align 4
  %16 = alloca i32, align 4
  %17 = alloca ptr, align 8
  %18 = alloca i32, align 4
  %19 = alloca i32, align 4
  %20 = alloca float, align 4
  %21 = alloca i32, align 4
  %22 = alloca i32, align 4
  %23 = alloca float, align 4
  %24 = alloca float, align 4
  %25 = alloca i32, align 4
  %26 = alloca i32, align 4
  %27 = alloca ptr, align 8
  %28 = alloca ptr, align 8
  %29 = alloca ptr, align 8
  store ptr %0, ptr %9, align 8, !tbaa !4
  store ptr %1, ptr %10, align 8, !tbaa !36
  store ptr %2, ptr %11, align 8, !tbaa !36
  store ptr %3, ptr %12, align 8, !tbaa !36
  store float %4, ptr %13, align 4, !tbaa !90
  store i32 %5, ptr %14, align 4, !tbaa !32
  store i32 %6, ptr %15, align 4, !tbaa !32
  store i32 %7, ptr %16, align 4, !tbaa !32
  call void @llvm.lifetime.start.p0(i64 8, ptr %17) #10
  %30 = load ptr, ptr %9, align 8, !tbaa !4
  %31 = getelementptr inbounds nuw %struct.AVFilterContext, ptr %30, i32 0, i32 9
  %32 = load ptr, ptr %31, align 8, !tbaa !9
  store ptr %32, ptr %17, align 8, !tbaa !22
  call void @llvm.lifetime.start.p0(i64 4, ptr %18) #10
  %33 = load ptr, ptr %17, align 8, !tbaa !22
  %34 = getelementptr inbounds nuw %struct.XFadeContext, ptr %33, i32 0, i32 5
  %35 = load i32, ptr %34, align 8, !tbaa !82
  store i32 %35, ptr %18, align 4, !tbaa !32
  call void @llvm.lifetime.start.p0(i64 4, ptr %19) #10
  %36 = load ptr, ptr %12, align 8, !tbaa !36
  %37 = getelementptr inbounds nuw %struct.AVFrame, ptr %36, i32 0, i32 3
  %38 = load i32, ptr %37, align 8, !tbaa !92
  store i32 %38, ptr %19, align 4, !tbaa !32
  call void @llvm.lifetime.start.p0(i64 4, ptr %20) #10
  %39 = load ptr, ptr %12, align 8, !tbaa !36
  %40 = getelementptr inbounds nuw %struct.AVFrame, ptr %39, i32 0, i32 4
  %41 = load i32, ptr %40, align 4, !tbaa !95
  %42 = sitofp i32 %41 to float
  store float %42, ptr %20, align 4, !tbaa !90
  call void @llvm.lifetime.start.p0(i64 4, ptr %21) #10
  %43 = load i32, ptr %14, align 4, !tbaa !32
  store i32 %43, ptr %21, align 4, !tbaa !32
  br label %44

44:                                               ; preds = %154, %8
  %45 = load i32, ptr %21, align 4, !tbaa !32
  %46 = load i32, ptr %15, align 4, !tbaa !32
  %47 = icmp slt i32 %45, %46
  br i1 %47, label %49, label %48

48:                                               ; preds = %44
  store i32 2, ptr %22, align 4
  call void @llvm.lifetime.end.p0(i64 4, ptr %21) #10
  br label %157

49:                                               ; preds = %44
  call void @llvm.lifetime.start.p0(i64 4, ptr %23) #10
  %50 = load i32, ptr %21, align 4, !tbaa !32
  %51 = sitofp i32 %50 to float
  %52 = load float, ptr %20, align 4, !tbaa !90
  %53 = fdiv nsz float %51, %52
  %54 = load float, ptr %13, align 4, !tbaa !90
  %55 = fneg nsz float %54
  %56 = call nsz float @llvm.fmuladd.f32(float %55, float 1.500000e+00, float %53)
  %57 = call nsz float @smoothstep(float noundef -5.000000e-01, float noundef 0.000000e+00, float noundef %56)
  store float %57, ptr %23, align 4, !tbaa !90
  call void @llvm.lifetime.start.p0(i64 4, ptr %24) #10
  %58 = load float, ptr %23, align 4, !tbaa !90
  %59 = load i32, ptr %21, align 4, !tbaa !32
  %60 = sitofp i32 %59 to float
  %61 = fmul nsz float 1.000000e+01, %60
  %62 = load float, ptr %20, align 4, !tbaa !90
  %63 = fdiv nsz float %61, %62
  %64 = call nsz float @fract(float noundef %63)
  %65 = fcmp nsz ole float %58, %64
  %66 = select nsz i1 %65, float 0.000000e+00, float 1.000000e+00
  store float %66, ptr %24, align 4, !tbaa !90
  call void @llvm.lifetime.start.p0(i64 4, ptr %25) #10
  store i32 0, ptr %25, align 4, !tbaa !32
  br label %67

67:                                               ; preds = %150, %49
  %68 = load i32, ptr %25, align 4, !tbaa !32
  %69 = load i32, ptr %19, align 4, !tbaa !32
  %70 = icmp slt i32 %68, %69
  br i1 %70, label %72, label %71

71:                                               ; preds = %67
  store i32 5, ptr %22, align 4
  call void @llvm.lifetime.end.p0(i64 4, ptr %25) #10
  br label %153

72:                                               ; preds = %67
  call void @llvm.lifetime.start.p0(i64 4, ptr %26) #10
  store i32 0, ptr %26, align 4, !tbaa !32
  br label %73

73:                                               ; preds = %146, %72
  %74 = load i32, ptr %26, align 4, !tbaa !32
  %75 = load i32, ptr %18, align 4, !tbaa !32
  %76 = icmp slt i32 %74, %75
  br i1 %76, label %78, label %77

77:                                               ; preds = %73
  store i32 8, ptr %22, align 4
  call void @llvm.lifetime.end.p0(i64 4, ptr %26) #10
  br label %149

78:                                               ; preds = %73
  call void @llvm.lifetime.start.p0(i64 8, ptr %27) #10
  %79 = load ptr, ptr %10, align 8, !tbaa !36
  %80 = getelementptr inbounds nuw %struct.AVFrame, ptr %79, i32 0, i32 0
  %81 = load i32, ptr %26, align 4, !tbaa !32
  %82 = sext i32 %81 to i64
  %83 = getelementptr inbounds [8 x ptr], ptr %80, i64 0, i64 %82
  %84 = load ptr, ptr %83, align 8, !tbaa !96
  %85 = load i32, ptr %21, align 4, !tbaa !32
  %86 = load ptr, ptr %10, align 8, !tbaa !36
  %87 = getelementptr inbounds nuw %struct.AVFrame, ptr %86, i32 0, i32 1
  %88 = load i32, ptr %26, align 4, !tbaa !32
  %89 = sext i32 %88 to i64
  %90 = getelementptr inbounds [8 x i32], ptr %87, i64 0, i64 %89
  %91 = load i32, ptr %90, align 4, !tbaa !32
  %92 = mul nsw i32 %85, %91
  %93 = sext i32 %92 to i64
  %94 = getelementptr inbounds i8, ptr %84, i64 %93
  store ptr %94, ptr %27, align 8, !tbaa !96
  call void @llvm.lifetime.start.p0(i64 8, ptr %28) #10
  %95 = load ptr, ptr %11, align 8, !tbaa !36
  %96 = getelementptr inbounds nuw %struct.AVFrame, ptr %95, i32 0, i32 0
  %97 = load i32, ptr %26, align 4, !tbaa !32
  %98 = sext i32 %97 to i64
  %99 = getelementptr inbounds [8 x ptr], ptr %96, i64 0, i64 %98
  %100 = load ptr, ptr %99, align 8, !tbaa !96
  %101 = load i32, ptr %21, align 4, !tbaa !32
  %102 = load ptr, ptr %11, align 8, !tbaa !36
  %103 = getelementptr inbounds nuw %struct.AVFrame, ptr %102, i32 0, i32 1
  %104 = load i32, ptr %26, align 4, !tbaa !32
  %105 = sext i32 %104 to i64
  %106 = getelementptr inbounds [8 x i32], ptr %103, i64 0, i64 %105
  %107 = load i32, ptr %106, align 4, !tbaa !32
  %108 = mul nsw i32 %101, %107
  %109 = sext i32 %108 to i64
  %110 = getelementptr inbounds i8, ptr %100, i64 %109
  store ptr %110, ptr %28, align 8, !tbaa !96
  call void @llvm.lifetime.start.p0(i64 8, ptr %29) #10
  %111 = load ptr, ptr %12, align 8, !tbaa !36
  %112 = getelementptr inbounds nuw %struct.AVFrame, ptr %111, i32 0, i32 0
  %113 = load i32, ptr %26, align 4, !tbaa !32
  %114 = sext i32 %113 to i64
  %115 = getelementptr inbounds [8 x ptr], ptr %112, i64 0, i64 %114
  %116 = load ptr, ptr %115, align 8, !tbaa !96
  %117 = load i32, ptr %21, align 4, !tbaa !32
  %118 = load ptr, ptr %12, align 8, !tbaa !36
  %119 = getelementptr inbounds nuw %struct.AVFrame, ptr %118, i32 0, i32 1
  %120 = load i32, ptr %26, align 4, !tbaa !32
  %121 = sext i32 %120 to i64
  %122 = getelementptr inbounds [8 x i32], ptr %119, i64 0, i64 %121
  %123 = load i32, ptr %122, align 4, !tbaa !32
  %124 = mul nsw i32 %117, %123
  %125 = sext i32 %124 to i64
  %126 = getelementptr inbounds i8, ptr %116, i64 %125
  store ptr %126, ptr %29, align 8, !tbaa !96
  %127 = load ptr, ptr %28, align 8, !tbaa !96
  %128 = load i32, ptr %25, align 4, !tbaa !32
  %129 = sext i32 %128 to i64
  %130 = getelementptr inbounds i8, ptr %127, i64 %129
  %131 = load i8, ptr %130, align 1, !tbaa !97
  %132 = uitofp i8 %131 to float
  %133 = load ptr, ptr %27, align 8, !tbaa !96
  %134 = load i32, ptr %25, align 4, !tbaa !32
  %135 = sext i32 %134 to i64
  %136 = getelementptr inbounds i8, ptr %133, i64 %135
  %137 = load i8, ptr %136, align 1, !tbaa !97
  %138 = uitofp i8 %137 to float
  %139 = load float, ptr %24, align 4, !tbaa !90
  %140 = call nsz float @mix(float noundef %132, float noundef %138, float noundef %139)
  %141 = fptoui float %140 to i8
  %142 = load ptr, ptr %29, align 8, !tbaa !96
  %143 = load i32, ptr %25, align 4, !tbaa !32
  %144 = sext i32 %143 to i64
  %145 = getelementptr inbounds i8, ptr %142, i64 %144
  store i8 %141, ptr %145, align 1, !tbaa !97
  call void @llvm.lifetime.end.p0(i64 8, ptr %29) #10
  call void @llvm.lifetime.end.p0(i64 8, ptr %28) #10
  call void @llvm.lifetime.end.p0(i64 8, ptr %27) #10
  br label %146

146:                                              ; preds = %78
  %147 = load i32, ptr %26, align 4, !tbaa !32
  %148 = add nsw i32 %147, 1
  store i32 %148, ptr %26, align 4, !tbaa !32
  br label %73, !llvm.loop !306

149:                                              ; preds = %77
  br label %150

150:                                              ; preds = %149
  %151 = load i32, ptr %25, align 4, !tbaa !32
  %152 = add nsw i32 %151, 1
  store i32 %152, ptr %25, align 4, !tbaa !32
  br label %67, !llvm.loop !307

153:                                              ; preds = %71
  call void @llvm.lifetime.end.p0(i64 4, ptr %24) #10
  call void @llvm.lifetime.end.p0(i64 4, ptr %23) #10
  br label %154

154:                                              ; preds = %153
  %155 = load i32, ptr %21, align 4, !tbaa !32
  %156 = add nsw i32 %155, 1
  store i32 %156, ptr %21, align 4, !tbaa !32
  br label %44, !llvm.loop !308

157:                                              ; preds = %48
  call void @llvm.lifetime.end.p0(i64 4, ptr %20) #10
  call void @llvm.lifetime.end.p0(i64 4, ptr %19) #10
  call void @llvm.lifetime.end.p0(i64 4, ptr %18) #10
  call void @llvm.lifetime.end.p0(i64 8, ptr %17) #10
  ret void
}