; Function Attrs: nofree norecurse nosync nounwind memory(readwrite, inaccessiblemem: none) uwtable
define internal void @vuslice8_transition(ptr noundef readonly captures(none) %0, ptr noundef readonly captures(none) %1, ptr noundef readonly captures(none) %2, ptr noundef readonly captures(none) %3, float noundef %4, i32 noundef %5, i32 noundef %6, i32 %7) #6 {
  %9 = getelementptr inbounds nuw i8, ptr %0, i64 72
  %10 = load ptr, ptr %9, align 8, !tbaa !4
  %11 = getelementptr inbounds nuw i8, ptr %10, i64 40
  %12 = load i32, ptr %11, align 8, !tbaa !77
  %13 = getelementptr inbounds nuw i8, ptr %3, i64 104
  %14 = load i32, ptr %13, align 8, !tbaa !85
  %15 = getelementptr inbounds nuw i8, ptr %3, i64 108
  %16 = load i32, ptr %15, align 4, !tbaa !88
  %17 = sitofp i32 %16 to float
  %18 = icmp slt i32 %5, %6
  br i1 %18, label %.lr.ph, label %._crit_edge

.lr.ph:                                           ; preds = %8
  %19 = fneg nsz float %4
  %20 = icmp sgt i32 %14, 0
  %21 = getelementptr inbounds nuw i8, ptr %1, i64 64
  %22 = getelementptr inbounds nuw i8, ptr %2, i64 64
  %23 = getelementptr inbounds nuw i8, ptr %3, i64 64
  %24 = icmp sgt i32 %12, 0
  %or.cond = select i1 %20, i1 %24, i1 false
  br i1 %or.cond, label %.preheader.lr.ph.us.us.preheader, label %._crit_edge

.preheader.lr.ph.us.us.preheader:                 ; preds = %.lr.ph
  %wide.trip.count58 = zext nneg i32 %14 to i64
  %wide.trip.count = zext nneg i32 %12 to i64
  br label %.preheader.lr.ph.us.us

.preheader.lr.ph.us.us:                           ; preds = %.preheader.lr.ph.us.us.preheader, %._crit_edge45.split.us.us.us
  %.046.us.us = phi i32 [ %75, %._crit_edge45.split.us.us.us ], [ %5, %.preheader.lr.ph.us.us.preheader ]
  %25 = sitofp i32 %.046.us.us to float
  %26 = fdiv nsz float %25, %17
  %27 = tail call nsz float @llvm.fmuladd.f32(float %19, float 1.500000e+00, float %26)
  %28 = fadd nsz float %27, 5.000000e-01
  %29 = fmul nsz float %28, 2.000000e+00
  %30 = fcmp nsz ogt float %29, 0.000000e+00
  %31 = select nsz i1 %30, float %29, float 0.000000e+00
  %32 = fcmp nsz ogt float %31, 1.000000e+00
  %..i.i.us.us = select nsz i1 %32, float 1.000000e+00, float %31
  %33 = fmul nsz float %..i.i.us.us, %..i.i.us.us
  %34 = tail call nsz float @llvm.fmuladd.f32(float %..i.i.us.us, float -2.000000e+00, float 3.000000e+00)
  %35 = fmul nsz float %33, %34
  %36 = fmul nsz float %25, 1.000000e+01
  %37 = fdiv nsz float %36, %17
  %38 = tail call nsz float @llvm.floor.f32(float %37)
  %39 = fsub nsz float %37, %38
  %40 = fcmp nsz ole float %35, %39
  %41 = select nsz i1 %40, float 0.000000e+00, float 1.000000e+00
  %42 = fsub nsz float 1.000000e+00, %41
  br label %.preheader.us.us.us

.preheader.us.us.us:                              ; preds = %._crit_edge.us.us.us, %.preheader.lr.ph.us.us
  %indvars.iv55 = phi i64 [ %indvars.iv.next56, %._crit_edge.us.us.us ], [ 0, %.preheader.lr.ph.us.us ]
  br label %43

43:                                               ; preds = %43, %.preheader.us.us.us
  %indvars.iv = phi i64 [ %indvars.iv.next, %43 ], [ 0, %.preheader.us.us.us ]
  %44 = getelementptr inbounds nuw [8 x ptr], ptr %1, i64 0, i64 %indvars.iv
  %45 = load ptr, ptr %44, align 8, !tbaa !89
  %46 = getelementptr inbounds nuw [8 x i32], ptr %21, i64 0, i64 %indvars.iv
  %47 = load i32, ptr %46, align 4, !tbaa !31
  %48 = mul nsw i32 %47, %.046.us.us
  %49 = sext i32 %48 to i64
  %50 = getelementptr inbounds i8, ptr %45, i64 %49
  %51 = getelementptr inbounds nuw [8 x ptr], ptr %2, i64 0, i64 %indvars.iv
  %52 = load ptr, ptr %51, align 8, !tbaa !89
  %53 = getelementptr inbounds nuw [8 x i32], ptr %22, i64 0, i64 %indvars.iv
  %54 = load i32, ptr %53, align 4, !tbaa !31
  %55 = mul nsw i32 %54, %.046.us.us
  %56 = sext i32 %55 to i64
  %57 = getelementptr inbounds i8, ptr %52, i64 %56
  %58 = getelementptr inbounds nuw [8 x ptr], ptr %3, i64 0, i64 %indvars.iv
  %59 = load ptr, ptr %58, align 8, !tbaa !89
  %60 = getelementptr inbounds nuw [8 x i32], ptr %23, i64 0, i64 %indvars.iv
  %61 = load i32, ptr %60, align 4, !tbaa !31
  %62 = mul nsw i32 %61, %.046.us.us
  %63 = sext i32 %62 to i64
  %64 = getelementptr inbounds i8, ptr %59, i64 %63
  %65 = getelementptr inbounds nuw i8, ptr %57, i64 %indvars.iv55
  %66 = load i8, ptr %65, align 1, !tbaa !90
  %67 = uitofp i8 %66 to float
  %68 = getelementptr inbounds nuw i8, ptr %50, i64 %indvars.iv55
  %69 = load i8, ptr %68, align 1, !tbaa !90
  %70 = uitofp i8 %69 to float
  %71 = fmul nsz float %42, %70
  %72 = tail call nsz noundef float @llvm.fmuladd.f32(float %67, float %41, float %71)
  %73 = fptoui float %72 to i8
  %74 = getelementptr inbounds nuw i8, ptr %64, i64 %indvars.iv55
  store i8 %73, ptr %74, align 1, !tbaa !90
  %indvars.iv.next = add nuw nsw i64 %indvars.iv, 1
  %exitcond.not = icmp eq i64 %indvars.iv.next, %wide.trip.count
  br i1 %exitcond.not, label %._crit_edge.us.us.us, label %43, !llvm.loop !298

._crit_edge.us.us.us:                             ; preds = %43
  %indvars.iv.next56 = add nuw nsw i64 %indvars.iv55, 1
  %exitcond59.not = icmp eq i64 %indvars.iv.next56, %wide.trip.count58
  br i1 %exitcond59.not, label %._crit_edge45.split.us.us.us, label %.preheader.us.us.us, !llvm.loop !299

._crit_edge45.split.us.us.us:                     ; preds = %._crit_edge.us.us.us
  %75 = add nsw i32 %.046.us.us, 1
  %exitcond60.not = icmp eq i32 %75, %6
  br i1 %exitcond60.not, label %._crit_edge, label %.preheader.lr.ph.us.us, !llvm.loop !300

._crit_edge:                                      ; preds = %._crit_edge45.split.us.us.us, %.lr.ph, %8
  ret void
}